target datalayout = "e-m:e-p270:32:32-p271:32:32-p272:64:64-i64:64-i128:128-f80:128-n8:16:32:64-S128"
target triple = "x86_64-pc-linux-gnu"

%struct.rb_global_entry = type { ptr, i64, i8 }
%struct.rb_global_variable = type { i32, i32, ptr, ptr, ptr, ptr, ptr, ptr }

; Function Attrs: nounwind sspstrong uwtable
define dso_local void @rb_gvar_undef_setter(i64 noundef %0, i64 noundef %1, ptr noundef %2) #0 {
  %4 = alloca i64, align 8
  %5 = alloca i64, align 8
  %6 = alloca ptr, align 8
  %7 = alloca ptr, align 8
  store i64 %0, ptr %4, align 8, !tbaa !14
  store i64 %1, ptr %5, align 8, !tbaa !14
  store ptr %2, ptr %6, align 8, !tbaa !49
  call void @llvm.lifetime.start.p0(i64 8, ptr %7) #30
  %8 = load i64, ptr %5, align 8, !tbaa !14
  %9 = call ptr @rb_global_entry(i64 noundef %8)
  %10 = getelementptr inbounds nuw %struct.rb_global_entry, ptr %9, i32 0, i32 0
  %11 = load ptr, ptr %10, align 8, !tbaa !54
  store ptr %11, ptr %7, align 8, !tbaa !62
  %12 = load ptr, ptr %7, align 8, !tbaa !62
  %13 = getelementptr inbounds nuw %struct.rb_global_variable, ptr %12, i32 0, i32 3
  store ptr @rb_gvar_val_getter, ptr %13, align 8, !tbaa !63
  %14 = load ptr, ptr %7, align 8, !tbaa !62
  %15 = getelementptr inbounds nuw %struct.rb_global_variable, ptr %14, i32 0, i32 4
  store ptr @rb_gvar_val_setter, ptr %15, align 8, !tbaa !64
  %16 = load ptr, ptr %7, align 8, !tbaa !62
  %17 = getelementptr inbounds nuw %struct.rb_global_variable, ptr %16, i32 0, i32 5
  store ptr @rb_gvar_val_marker, ptr %17, align 8, !tbaa !65
  %18 = load ptr, ptr %7, align 8, !tbaa !62
  %19 = getelementptr inbounds nuw %struct.rb_global_variable, ptr %18, i32 0, i32 6
  store ptr @rb_gvar_val_compactor, ptr %19, align 8, !tbaa !66
  %20 = load i64, ptr %4, align 8, !tbaa !14
  %21 = inttoptr i64 %20 to ptr
  %22 = load ptr, ptr %7, align 8, !tbaa !62
  %23 = getelementptr inbounds nuw %struct.rb_global_variable, ptr %22, i32 0, i32 2
  store ptr %21, ptr %23, align 8, !tbaa !67
  call void @llvm.lifetime.end.p0(i64 8, ptr %7) #30
  ret void
}