; Function Attrs: nounwind sspstrong uwtable
define dso_local void @rb_gvar_undef_setter(i64 noundef %0, i64 noundef %1, ptr readnone captures(none) %2) #0 {
  %4 = tail call fastcc ptr @rb_global_entry(i64 noundef %1)
  %5 = load ptr, ptr %4, align 8, !tbaa !58
  %6 = getelementptr inbounds nuw i8, ptr %5, i64 16
  store ptr @rb_gvar_val_getter, ptr %6, align 8, !tbaa !73
  %7 = getelementptr inbounds nuw i8, ptr %5, i64 24
  store ptr @rb_gvar_val_setter, ptr %7, align 8, !tbaa !74
  %8 = getelementptr inbounds nuw i8, ptr %5, i64 32
  store ptr @rb_gvar_val_marker, ptr %8, align 8, !tbaa !75
  %9 = getelementptr inbounds nuw i8, ptr %5, i64 40
  store ptr @rb_gvar_val_compactor, ptr %9, align 8, !tbaa !76
  %10 = inttoptr i64 %0 to ptr
  %11 = getelementptr inbounds nuw i8, ptr %5, i64 8
  store ptr %10, ptr %11, align 8, !tbaa !77
  ret void
}